target datalayout = "e-m:e-p270:32:32-p271:32:32-p272:64:64-i64:64-i128:128-f80:128-n8:16:32:64-S128"
target triple = "x86_64-pc-linux-gnu"

%class.XMarkStripe = type { %class.XStackList, [56 x i8], %class.XStackList, [56 x i8] }
%class.XStackList = type { ptr }
%class.XMarkStripeSet = type { i64, i64, [48 x i8], [16 x %class.XMarkStripe] }
%class.XMarkThreadLocalStacks = type { ptr, [16 x ptr] }
%class.XStack = type { i64, ptr, [15 x ptr] }
%class.XStack.1 = type { i64, ptr, [254 x %class.XMarkStackEntry] }
%class.XMarkStackEntry = type { i64 }
%"struct.Atomic::CmpxchgImpl" = type { i8 }
%"struct.Atomic::PlatformCmpxchg" = type { i8 }

@XMarkStackSpaceStart = external global i64, align 8

; Function Attrs: mustprogress nounwind uwtable
define linkonce_odr hidden noundef ptr @_ZNK6Atomic15PlatformCmpxchgILm8EEclIP6XStackI15XMarkStackEntryLm254EEEET_PVS7_S7_S7_19atomic_memory_order(ptr noundef nonnull align 1 dereferenceable(1) %0, ptr noundef %1, ptr noundef %2, ptr noundef %3, i32 noundef %4) #1 comdat align 2 {
  %6 = alloca ptr, align 8
  %7 = alloca ptr, align 8
  %8 = alloca ptr, align 8
  %9 = alloca ptr, align 8
  %10 = alloca i32, align 4
  store ptr %0, ptr %6, align 8
  store ptr %1, ptr %7, align 8
  store ptr %2, ptr %8, align 8
  store ptr %3, ptr %9, align 8
  store i32 %4, ptr %10, align 4
  %11 = load ptr, ptr %9, align 8
  %12 = load ptr, ptr %8, align 8
  %13 = load ptr, ptr %7, align 8
  %14 = call ptr asm sideeffect "lock cmpxchgq $1,($3)", "={ax},r,{ax},r,~{cc},~{memory},~{dirflag},~{fpsr},~{flags}"(ptr %11, ptr %12, ptr %13) #5, !srcloc !15
  store ptr %14, ptr %9, align 8
  %15 = load ptr, ptr %9, align 8
  ret ptr %15
}

; Function Attrs: mustprogress nounwind uwtable
define linkonce_odr hidden noundef ptr @_ZNK6Atomic11CmpxchgImplIP6XStackI15XMarkStackEntryLm254EES4_S4_vEclEPVS4_S4_S4_19atomic_memory_order(ptr noundef nonnull align 1 dereferenceable(1) %0, ptr noundef %1, ptr noundef %2, ptr noundef %3, i32 noundef %4) #1 comdat align 2 {
  %6 = alloca ptr, align 8
  %7 = alloca ptr, align 8
  %8 = alloca ptr, align 8
  %9 = alloca ptr, align 8
  %10 = alloca i32, align 4
  %11 = alloca ptr, align 8
  %12 = alloca ptr, align 8
  %13 = alloca %"struct.Atomic::PlatformCmpxchg", align 1
  store ptr %0, ptr %6, align 8
  store ptr %1, ptr %7, align 8
  store ptr %2, ptr %8, align 8
  store ptr %3, ptr %9, align 8
  store i32 %4, ptr %10, align 4
  %14 = load ptr, ptr %9, align 8
  store ptr %14, ptr %11, align 8
  %15 = load ptr, ptr %8, align 8
  store ptr %15, ptr %12, align 8
  %16 = load ptr, ptr %7, align 8
  %17 = load ptr, ptr %12, align 8
  %18 = load ptr, ptr %11, align 8
  %19 = load i32, ptr %10, align 4
  %20 = call noundef ptr @_ZNK6Atomic15PlatformCmpxchgILm8EEclIP6XStackI15XMarkStackEntryLm254EEEET_PVS7_S7_S7_19atomic_memory_order(ptr noundef nonnull align 1 dereferenceable(1) %13, ptr noundef %16, ptr noundef %17, ptr noundef %18, i32 noundef %19)
  ret ptr %20
}

; Function Attrs: mustprogress nounwind uwtable
define linkonce_odr hidden noundef ptr @_ZN6Atomic7cmpxchgIP6XStackI15XMarkStackEntryLm254EES4_S4_EET_PVS5_T0_T1_19atomic_memory_order(ptr noundef %0, ptr noundef %1, ptr noundef %2, i32 noundef %3) #1 comdat align 2 {
  %5 = alloca ptr, align 8
  %6 = alloca ptr, align 8
  %7 = alloca ptr, align 8
  %8 = alloca i32, align 4
  %9 = alloca %"struct.Atomic::CmpxchgImpl", align 1
  store ptr %0, ptr %5, align 8
  store ptr %1, ptr %6, align 8
  store ptr %2, ptr %7, align 8
  store i32 %3, ptr %8, align 4
  %10 = load ptr, ptr %5, align 8
  %11 = load ptr, ptr %6, align 8
  %12 = load ptr, ptr %7, align 8
  %13 = load i32, ptr %8, align 4
  %14 = call noundef ptr @_ZNK6Atomic11CmpxchgImplIP6XStackI15XMarkStackEntryLm254EES4_S4_vEclEPVS4_S4_S4_19atomic_memory_order(ptr noundef nonnull align 1 dereferenceable(1) %9, ptr noundef %10, ptr noundef %11, ptr noundef %12, i32 noundef %13)
  ret ptr %14
}

; Function Attrs: mustprogress nounwind uwtable
define linkonce_odr hidden noundef ptr @_ZNK10XStackListI6XStackI15XMarkStackEntryLm254EEE24encode_versioned_pointerEPKS2_j(ptr noundef nonnull align 8 dereferenceable(8) %0, ptr noundef %1, i32 noundef %2) #1 comdat align 2 {
  %4 = alloca ptr, align 8
  %5 = alloca ptr, align 8
  %6 = alloca i32, align 4
  %7 = alloca i64, align 8
  store ptr %0, ptr %4, align 8
  store ptr %1, ptr %5, align 8
  store i32 %2, ptr %6, align 4
  %8 = load ptr, ptr %5, align 8
  %9 = icmp eq ptr %8, null
  br i1 %9, label %10, label %11

10:                                               ; preds = %3
  store i64 4294967295, ptr %7, align 8
  br label %17

11:                                               ; preds = %3
  %12 = load ptr, ptr %5, align 8
  %13 = ptrtoint ptr %12 to i64
  %14 = load i64, ptr @XMarkStackSpaceStart, align 8
  %15 = sub i64 %13, %14
  %16 = lshr i64 %15, 11
  store i64 %16, ptr %7, align 8
  br label %17

17:                                               ; preds = %11, %10
  %18 = load i64, ptr %7, align 8
  %19 = shl i64 %18, 32
  %20 = load i32, ptr %6, align 4
  %21 = zext i32 %20 to i64
  %22 = or i64 %19, %21
  %23 = inttoptr i64 %22 to ptr
  ret ptr %23
}

; Function Attrs: mustprogress nounwind uwtable
define linkonce_odr hidden void @_ZNK10XStackListI6XStackI15XMarkStackEntryLm254EEE24decode_versioned_pointerEPKS2_PPS2_Pj(ptr noundef nonnull align 8 dereferenceable(8) %0, ptr noundef %1, ptr noundef %2, ptr noundef %3) #1 comdat align 2 {
  %5 = alloca ptr, align 8
  %6 = alloca ptr, align 8
  %7 = alloca ptr, align 8
  %8 = alloca ptr, align 8
  %9 = alloca i64, align 8
  store ptr %0, ptr %5, align 8
  store ptr %1, ptr %6, align 8
  store ptr %2, ptr %7, align 8
  store ptr %3, ptr %8, align 8
  %10 = load ptr, ptr %6, align 8
  %11 = ptrtoint ptr %10 to i64
  %12 = lshr i64 %11, 32
  store i64 %12, ptr %9, align 8
  %13 = load i64, ptr %9, align 8
  %14 = icmp eq i64 %13, 4294967295
  br i1 %14, label %15, label %17

15:                                               ; preds = %4
  %16 = load ptr, ptr %7, align 8
  store ptr null, ptr %16, align 8
  br label %24

17:                                               ; preds = %4
  %18 = load i64, ptr %9, align 8
  %19 = shl i64 %18, 11
  %20 = load i64, ptr @XMarkStackSpaceStart, align 8
  %21 = add i64 %19, %20
  %22 = inttoptr i64 %21 to ptr
  %23 = load ptr, ptr %7, align 8
  store ptr %22, ptr %23, align 8
  br label %24

24:                                               ; preds = %17, %15
  %25 = load ptr, ptr %6, align 8
  %26 = ptrtoint ptr %25 to i64
  %27 = trunc i64 %26 to i32
  %28 = load ptr, ptr %8, align 8
  store i32 %27, ptr %28, align 4
  ret void
}

; Function Attrs: mustprogress nounwind uwtable
define linkonce_odr hidden noundef ptr @_ZN6XStackI15XMarkStackEntryLm254EE9next_addrEv(ptr noundef nonnull align 8 dereferenceable(2048) %0) #1 comdat align 2 {
  %2 = alloca ptr, align 8
  store ptr %0, ptr %2, align 8
  %3 = load ptr, ptr %2, align 8
  %4 = getelementptr inbounds %class.XStack.1, ptr %3, i32 0, i32 1
  ret ptr %4
}

; Function Attrs: mustprogress nounwind uwtable
define linkonce_odr hidden noundef zeroext i1 @_ZNK6XStackIPS_I15XMarkStackEntryLm254EELm15EE7is_fullEv(ptr noundef nonnull align 8 dereferenceable(136) %0) #1 comdat align 2 {
  %2 = alloca ptr, align 8
  store ptr %0, ptr %2, align 8
  %3 = load ptr, ptr %2, align 8
  %4 = getelementptr inbounds %class.XStack, ptr %3, i32 0, i32 0
  %5 = load i64, ptr %4, align 8
  %6 = icmp eq i64 %5, 15
  ret i1 %6
}

; Function Attrs: mustprogress nounwind uwtable
define linkonce_odr hidden void @_ZN10XStackListI6XStackI15XMarkStackEntryLm254EEE4pushEPS2_(ptr noundef nonnull align 8 dereferenceable(8) %0, ptr noundef %1) #1 comdat align 2 {
  %3 = alloca ptr, align 8
  %4 = alloca ptr, align 8
  %5 = alloca ptr, align 8
  %6 = alloca i32, align 4
  %7 = alloca ptr, align 8
  %8 = alloca ptr, align 8
  store ptr %0, ptr %3, align 8
  store ptr %1, ptr %4, align 8
  %9 = load ptr, ptr %3, align 8
  %10 = getelementptr inbounds %class.XStackList, ptr %9, i32 0, i32 0
  %11 = load volatile ptr, ptr %10, align 8
  store ptr %11, ptr %5, align 8
  store i32 0, ptr %6, align 4
  br label %12

12:                                               ; preds = %28, %2
  %13 = load ptr, ptr %5, align 8
  %14 = load ptr, ptr %4, align 8
  %15 = call noundef ptr @_ZN6XStackI15XMarkStackEntryLm254EE9next_addrEv(ptr noundef nonnull align 8 dereferenceable(2048) %14)
  call void @_ZNK10XStackListI6XStackI15XMarkStackEntryLm254EEE24decode_versioned_pointerEPKS2_PPS2_Pj(ptr noundef nonnull align 8 dereferenceable(8) %9, ptr noundef %13, ptr noundef %15, ptr noundef %6)
  %16 = load ptr, ptr %4, align 8
  %17 = load i32, ptr %6, align 4
  %18 = add i32 %17, 1
  %19 = call noundef ptr @_ZNK10XStackListI6XStackI15XMarkStackEntryLm254EEE24encode_versioned_pointerEPKS2_j(ptr noundef nonnull align 8 dereferenceable(8) %9, ptr noundef %16, i32 noundef %18)
  store ptr %19, ptr %7, align 8
  %20 = getelementptr inbounds %class.XStackList, ptr %9, i32 0, i32 0
  %21 = load ptr, ptr %5, align 8
  %22 = load ptr, ptr %7, align 8
  %23 = call noundef ptr @_ZN6Atomic7cmpxchgIP6XStackI15XMarkStackEntryLm254EES4_S4_EET_PVS5_T0_T1_19atomic_memory_order(ptr noundef %20, ptr noundef %21, ptr noundef %22, i32 noundef 8)
  store ptr %23, ptr %8, align 8
  %24 = load ptr, ptr %8, align 8
  %25 = load ptr, ptr %5, align 8
  %26 = icmp eq ptr %24, %25
  br i1 %26, label %27, label %28

27:                                               ; preds = %12
  br label %30

28:                                               ; preds = %12
  %29 = load ptr, ptr %8, align 8
  store ptr %29, ptr %5, align 8
  br label %12, !llvm.loop !14

30:                                               ; preds = %27
  ret void
}

; Function Attrs: mustprogress nounwind uwtable
define linkonce_odr hidden noundef zeroext i1 @_ZN6XStackIPS_I15XMarkStackEntryLm254EELm15EE4pushES2_(ptr noundef nonnull align 8 dereferenceable(136) %0, ptr noundef %1) #1 comdat align 2 {
  %3 = alloca i1, align 1
  %4 = alloca ptr, align 8
  %5 = alloca ptr, align 8
  store ptr %0, ptr %4, align 8
  store ptr %1, ptr %5, align 8
  %6 = load ptr, ptr %4, align 8
  %7 = call noundef zeroext i1 @_ZNK6XStackIPS_I15XMarkStackEntryLm254EELm15EE7is_fullEv(ptr noundef nonnull align 8 dereferenceable(136) %6)
  br i1 %7, label %8, label %9

8:                                                ; preds = %2
  store i1 false, ptr %3, align 1
  br label %16

9:                                                ; preds = %2
  %10 = load ptr, ptr %5, align 8
  %11 = getelementptr inbounds %class.XStack, ptr %6, i32 0, i32 2
  %12 = getelementptr inbounds %class.XStack, ptr %6, i32 0, i32 0
  %13 = load i64, ptr %12, align 8
  %14 = add i64 %13, 1
  store i64 %14, ptr %12, align 8
  %15 = getelementptr inbounds [15 x ptr], ptr %11, i64 0, i64 %13
  store ptr %10, ptr %15, align 8
  store i1 true, ptr %3, align 1
  br label %16

16:                                               ; preds = %9, %8
  %17 = load i1, ptr %3, align 1
  ret i1 %17
}

; Function Attrs: mustprogress nounwind uwtable
define linkonce_odr hidden void @_ZN6XStackIPS_I15XMarkStackEntryLm254EELm15EEC2Ev(ptr noundef nonnull align 8 dereferenceable(136) %0) unnamed_addr #1 comdat align 2 {
  %2 = alloca ptr, align 8
  store ptr %0, ptr %2, align 8
  %3 = load ptr, ptr %2, align 8
  %4 = getelementptr inbounds %class.XStack, ptr %3, i32 0, i32 0
  store i64 0, ptr %4, align 8
  %5 = getelementptr inbounds %class.XStack, ptr %3, i32 0, i32 1
  store ptr null, ptr %5, align 8
  ret void
}

; Function Attrs: mustprogress nounwind uwtable
define linkonce_odr hidden void @_ZN11XMarkStripe13publish_stackEP6XStackI15XMarkStackEntryLm254EEb(ptr noundef nonnull align 64 dereferenceable(72) %0, ptr noundef %1, i1 noundef zeroext %2) #1 comdat align 2 {
  %4 = alloca ptr, align 8
  %5 = alloca ptr, align 8
  %6 = alloca i8, align 1
  store ptr %0, ptr %4, align 8
  store ptr %1, ptr %5, align 8
  %7 = zext i1 %2 to i8
  store i8 %7, ptr %6, align 1
  %8 = load ptr, ptr %4, align 8
  %9 = load i8, ptr %6, align 1
  %10 = trunc i8 %9 to i1
  br i1 %10, label %11, label %14

11:                                               ; preds = %3
  %12 = getelementptr inbounds %class.XMarkStripe, ptr %8, i32 0, i32 0
  %13 = load ptr, ptr %5, align 8
  call void @_ZN10XStackListI6XStackI15XMarkStackEntryLm254EEE4pushEPS2_(ptr noundef nonnull align 8 dereferenceable(8) %12, ptr noundef %13)
  br label %17

14:                                               ; preds = %3
  %15 = getelementptr inbounds %class.XMarkStripe, ptr %8, i32 0, i32 2
  %16 = load ptr, ptr %5, align 8
  call void @_ZN10XStackListI6XStackI15XMarkStackEntryLm254EEE4pushEPS2_(ptr noundef nonnull align 8 dereferenceable(8) %15, ptr noundef %16)
  br label %17

17:                                               ; preds = %14, %11
  ret void
}

; Function Attrs: mustprogress nounwind uwtable
define hidden void @_ZN22XMarkThreadLocalStacks10free_stackEP19XMarkStackAllocatorP6XStackI15XMarkStackEntryLm254EE(ptr noundef nonnull align 8 dereferenceable(136) %0, ptr noundef %1, ptr noundef %2) #1 align 2 {
  %4 = alloca ptr, align 8
  %5 = alloca ptr, align 8
  %6 = alloca ptr, align 8
  store ptr %0, ptr %4, align 8
  store ptr %1, ptr %5, align 8
  store ptr %2, ptr %6, align 8
  %7 = load ptr, ptr %4, align 8
  br label %8

8:                                                ; preds = %21, %3
  %9 = getelementptr inbounds %class.XMarkThreadLocalStacks, ptr %7, i32 0, i32 0
  %10 = load ptr, ptr %9, align 8
  %11 = icmp eq ptr %10, null
  br i1 %11, label %12, label %15

12:                                               ; preds = %8
  %13 = load ptr, ptr %6, align 8
  call void @_ZN6XStackIPS_I15XMarkStackEntryLm254EELm15EEC2Ev(ptr noundef nonnull align 8 dereferenceable(136) %13)
  %14 = getelementptr inbounds %class.XMarkThreadLocalStacks, ptr %7, i32 0, i32 0
  store ptr %13, ptr %14, align 8
  br label %26

15:                                               ; preds = %8
  %16 = getelementptr inbounds %class.XMarkThreadLocalStacks, ptr %7, i32 0, i32 0
  %17 = load ptr, ptr %16, align 8
  %18 = load ptr, ptr %6, align 8
  %19 = call noundef zeroext i1 @_ZN6XStackIPS_I15XMarkStackEntryLm254EELm15EE4pushES2_(ptr noundef nonnull align 8 dereferenceable(136) %17, ptr noundef %18)
  br i1 %19, label %20, label %21

20:                                               ; preds = %15
  br label %26

21:                                               ; preds = %15
  %22 = load ptr, ptr %5, align 8
  %23 = getelementptr inbounds %class.XMarkThreadLocalStacks, ptr %7, i32 0, i32 0
  %24 = load ptr, ptr %23, align 8
  call void @_ZN19XMarkStackAllocator13free_magazineEP6XStackIPS0_I15XMarkStackEntryLm254EELm15EE(ptr noundef nonnull align 64 dereferenceable(128) %22, ptr noundef %24)
  %25 = getelementptr inbounds %class.XMarkThreadLocalStacks, ptr %7, i32 0, i32 0
  store ptr null, ptr %25, align 8
  br label %8, !llvm.loop !10

26:                                               ; preds = %20, %12
  ret void
}

; Function Attrs: mustprogress nounwind uwtable
define linkonce_odr hidden noundef zeroext i1 @_ZNK6XStackI15XMarkStackEntryLm254EE8is_emptyEv(ptr noundef nonnull align 8 dereferenceable(2048) %0) #1 comdat align 2 {
  %2 = alloca ptr, align 8
  store ptr %0, ptr %2, align 8
  %3 = load ptr, ptr %2, align 8
  %4 = getelementptr inbounds %class.XStack.1, ptr %3, i32 0, i32 0
  %5 = load i64, ptr %4, align 8
  %6 = icmp eq i64 %5, 0
  ret i1 %6
}

; Function Attrs: mustprogress nounwind uwtable
define linkonce_odr hidden noundef ptr @_ZN14XMarkStripeSet9stripe_atEm(ptr noundef nonnull align 64 dereferenceable(2112) %0, i64 noundef %1) #1 comdat align 2 {
  %3 = alloca ptr, align 8
  %4 = alloca i64, align 8
  store ptr %0, ptr %3, align 8
  store i64 %1, ptr %4, align 8
  %5 = load ptr, ptr %3, align 8
  %6 = getelementptr inbounds %class.XMarkStripeSet, ptr %5, i32 0, i32 3
  %7 = load i64, ptr %4, align 8
  %8 = getelementptr inbounds [16 x %class.XMarkStripe], ptr %6, i64 0, i64 %7
  ret ptr %8
}

; Function Attrs: mustprogress nounwind uwtable
define linkonce_odr hidden noundef i64 @_ZNK14XMarkStripeSet8nstripesEv(ptr noundef nonnull align 64 dereferenceable(2112) %0) #1 comdat align 2 {
  %2 = alloca ptr, align 8
  store ptr %0, ptr %2, align 8
  %3 = load ptr, ptr %2, align 8
  %4 = getelementptr inbounds %class.XMarkStripeSet, ptr %3, i32 0, i32 0
  %5 = load i64, ptr %4, align 64
  ret i64 %5
}

; Function Attrs: mustprogress nounwind uwtable
define hidden noundef zeroext i1 @_ZN22XMarkThreadLocalStacks5flushEP19XMarkStackAllocatorP14XMarkStripeSet(ptr noundef nonnull align 8 dereferenceable(136) %0, ptr noundef %1, ptr noundef %2) #1 align 2 {
  %4 = alloca ptr, align 8
  %5 = alloca ptr, align 8
  %6 = alloca ptr, align 8
  %7 = alloca i8, align 1
  %8 = alloca i64, align 8
  %9 = alloca ptr, align 8
  %10 = alloca ptr, align 8
  %11 = alloca ptr, align 8
  store ptr %0, ptr %4, align 8
  store ptr %1, ptr %5, align 8
  store ptr %2, ptr %6, align 8
  %12 = load ptr, ptr %4, align 8
  store i8 0, ptr %7, align 1
  store i64 0, ptr %8, align 8
  br label %13

13:                                               ; preds = %41, %3
  %14 = load i64, ptr %8, align 8
  %15 = load ptr, ptr %6, align 8
  %16 = call noundef i64 @_ZNK14XMarkStripeSet8nstripesEv(ptr noundef nonnull align 64 dereferenceable(2112) %15)
  %17 = icmp ult i64 %14, %16
  br i1 %17, label %18, label %44

18:                                               ; preds = %13
  %19 = load ptr, ptr %6, align 8
  %20 = load i64, ptr %8, align 8
  %21 = call noundef ptr @_ZN14XMarkStripeSet9stripe_atEm(ptr noundef nonnull align 64 dereferenceable(2112) %19, i64 noundef %20)
  store ptr %21, ptr %9, align 8
  %22 = getelementptr inbounds %class.XMarkThreadLocalStacks, ptr %12, i32 0, i32 1
  %23 = load i64, ptr %8, align 8
  %24 = getelementptr inbounds [16 x ptr], ptr %22, i64 0, i64 %23
  store ptr %24, ptr %10, align 8
  %25 = load ptr, ptr %10, align 8
  %26 = load ptr, ptr %25, align 8
  store ptr %26, ptr %11, align 8
  %27 = load ptr, ptr %11, align 8
  %28 = icmp eq ptr %27, null
  br i1 %28, label %29, label %30

29:                                               ; preds = %18
  br label %41

30:                                               ; preds = %18
  %31 = load ptr, ptr %11, align 8
  %32 = call noundef zeroext i1 @_ZNK6XStackI15XMarkStackEntryLm254EE8is_emptyEv(ptr noundef nonnull align 8 dereferenceable(2048) %31)
  br i1 %32, label %33, label %36

33:                                               ; preds = %30
  %34 = load ptr, ptr %5, align 8
  %35 = load ptr, ptr %11, align 8
  call void @_ZN22XMarkThreadLocalStacks10free_stackEP19XMarkStackAllocatorP6XStackI15XMarkStackEntryLm254EE(ptr noundef nonnull align 8 dereferenceable(136) %12, ptr noundef %34, ptr noundef %35)
  br label %39

36:                                               ; preds = %30
  %37 = load ptr, ptr %9, align 8
  %38 = load ptr, ptr %11, align 8
  call void @_ZN11XMarkStripe13publish_stackEP6XStackI15XMarkStackEntryLm254EEb(ptr noundef nonnull align 64 dereferenceable(72) %37, ptr noundef %38, i1 noundef zeroext true)
  store i8 1, ptr %7, align 1
  br label %39

39:                                               ; preds = %36, %33
  %40 = load ptr, ptr %10, align 8
  store ptr null, ptr %40, align 8
  br label %41

41:                                               ; preds = %39, %29
  %42 = load i64, ptr %8, align 8
  %43 = add i64 %42, 1
  store i64 %43, ptr %8, align 8
  br label %13, !llvm.loop !13

44:                                               ; preds = %13
  %45 = load i8, ptr %7, align 1
  %46 = trunc i8 %45 to i1
  ret i1 %46
}