; Function Attrs: mustprogress nounwind uwtable
define hidden noundef zeroext i1 @_ZN22XMarkThreadLocalStacks5flushEP19XMarkStackAllocatorP14XMarkStripeSet(ptr nocapture noundef nonnull align 8 dereferenceable(136) %0, ptr noundef %1, ptr noundef %2) local_unnamed_addr #1 align 2 {
  %4 = load i64, ptr %2, align 64
  %.not = icmp eq i64 %4, 0
  br i1 %.not, label %._crit_edge, label %.lr.ph

.lr.ph:                                           ; preds = %3
  %5 = getelementptr inbounds i8, ptr %2, i64 64
  %6 = getelementptr inbounds i8, ptr %0, i64 8
  br label %7

7:                                                ; preds = %.lr.ph, %43
  %8 = phi i64 [ %4, %.lr.ph ], [ %44, %43 ]
  %.018 = phi i1 [ false, %.lr.ph ], [ %.2, %43 ]
  %.01517 = phi i64 [ 0, %.lr.ph ], [ %45, %43 ]
  %9 = getelementptr inbounds [16 x %class.XMarkStripe], ptr %5, i64 0, i64 %.01517
  %10 = getelementptr inbounds [16 x ptr], ptr %6, i64 0, i64 %.01517
  %11 = load ptr, ptr %10, align 8
  %12 = icmp eq ptr %11, null
  br i1 %12, label %43, label %13

13:                                               ; preds = %7
  %14 = load i64, ptr %11, align 8
  %15 = icmp eq i64 %14, 0
  br i1 %15, label %16, label %23

16:                                               ; preds = %13
  %.pr.i = load ptr, ptr %0, align 8
  %17 = icmp eq ptr %.pr.i, null
  br i1 %17, label %19, label %.lr.ph.split.us.i

.lr.ph.split.us.i:                                ; preds = %16
  %18 = load i64, ptr %.pr.i, align 8
  %.not.us.i = icmp eq i64 %18, 15
  br i1 %.not.us.i, label %_ZN6XStackIPS_I15XMarkStackEntryLm254EELm15EE4pushES2_.exit.us.i, label %_ZN6XStackIPS_I15XMarkStackEntryLm254EELm15EE4pushES2_.exit.thread.i

_ZN6XStackIPS_I15XMarkStackEntryLm254EELm15EE4pushES2_.exit.us.i: ; preds = %.lr.ph.split.us.i
  tail call void @_ZN19XMarkStackAllocator13free_magazineEP6XStackIPS0_I15XMarkStackEntryLm254EELm15EE(ptr noundef nonnull align 64 dereferenceable(128) %1, ptr noundef nonnull %.pr.i) #9
  br label %19

19:                                               ; preds = %_ZN6XStackIPS_I15XMarkStackEntryLm254EELm15EE4pushES2_.exit.us.i, %16
  tail call void @llvm.memset.p0.i64(ptr noundef nonnull align 8 dereferenceable(16) %11, i8 0, i64 16, i1 false)
  br label %_ZN22XMarkThreadLocalStacks10free_stackEP19XMarkStackAllocatorP6XStackI15XMarkStackEntryLm254EE.exit

_ZN6XStackIPS_I15XMarkStackEntryLm254EELm15EE4pushES2_.exit.thread.i: ; preds = %.lr.ph.split.us.i
  %20 = getelementptr inbounds i8, ptr %.pr.i, i64 16
  %21 = add i64 %18, 1
  store i64 %21, ptr %.pr.i, align 8
  %22 = getelementptr inbounds [15 x ptr], ptr %20, i64 0, i64 %18
  br label %_ZN22XMarkThreadLocalStacks10free_stackEP19XMarkStackAllocatorP6XStackI15XMarkStackEntryLm254EE.exit

_ZN22XMarkThreadLocalStacks10free_stackEP19XMarkStackAllocatorP6XStackI15XMarkStackEntryLm254EE.exit: ; preds = %19, %_ZN6XStackIPS_I15XMarkStackEntryLm254EELm15EE4pushES2_.exit.thread.i
  %.sink.i = phi ptr [ %22, %_ZN6XStackIPS_I15XMarkStackEntryLm254EELm15EE4pushES2_.exit.thread.i ], [ %0, %19 ]
  store ptr %11, ptr %.sink.i, align 8
  br label %_ZN11XMarkStripe13publish_stackEP6XStackI15XMarkStackEntryLm254EEb.exit

23:                                               ; preds = %13
  %24 = load volatile ptr, ptr %9, align 8
  %25 = getelementptr inbounds i8, ptr %11, i64 8
  %26 = ptrtoint ptr %11 to i64
  br label %.split.i.i

.split.i.i:                                       ; preds = %23, %.split.i.i
  %.0.i.i = phi ptr [ %41, %.split.i.i ], [ %24, %23 ]
  %27 = ptrtoint ptr %.0.i.i to i64
  %28 = lshr i64 %27, 32
  %29 = icmp eq i64 %28, 4294967295
  %30 = shl nuw nsw i64 %28, 11
  %31 = load i64, ptr @XMarkStackSpaceStart, align 8
  %32 = add i64 %30, %31
  %33 = inttoptr i64 %32 to ptr
  %storemerge.i.i.i = select i1 %29, ptr null, ptr %33
  store ptr %storemerge.i.i.i, ptr %25, align 8
  %34 = add i64 %27, 1
  %35 = sub i64 %26, %31
  %36 = shl i64 %35, 21
  %37 = and i64 %36, -4294967296
  %38 = and i64 %34, 4294967295
  %39 = or disjoint i64 %37, %38
  %40 = inttoptr i64 %39 to ptr
  %41 = tail call noundef ptr asm sideeffect "lock cmpxchgq $1,($3)", "={ax},r,{ax},r,~{cc},~{memory},~{dirflag},~{fpsr},~{flags}"(ptr %40, ptr %.0.i.i, ptr nonnull %9) #9, !srcloc !9
  %42 = icmp eq ptr %41, %.0.i.i
  br i1 %42, label %_ZN11XMarkStripe13publish_stackEP6XStackI15XMarkStackEntryLm254EEb.exit, label %.split.i.i, !llvm.loop !10

_ZN11XMarkStripe13publish_stackEP6XStackI15XMarkStackEntryLm254EEb.exit: ; preds = %.split.i.i, %_ZN22XMarkThreadLocalStacks10free_stackEP19XMarkStackAllocatorP6XStackI15XMarkStackEntryLm254EE.exit
  %.1 = phi i1 [ %.018, %_ZN22XMarkThreadLocalStacks10free_stackEP19XMarkStackAllocatorP6XStackI15XMarkStackEntryLm254EE.exit ], [ true, %.split.i.i ]
  store ptr null, ptr %10, align 8
  %.pre = load i64, ptr %2, align 64
  br label %43

43:                                               ; preds = %7, %_ZN11XMarkStripe13publish_stackEP6XStackI15XMarkStackEntryLm254EEb.exit
  %44 = phi i64 [ %8, %7 ], [ %.pre, %_ZN11XMarkStripe13publish_stackEP6XStackI15XMarkStackEntryLm254EEb.exit ]
  %.2 = phi i1 [ %.018, %7 ], [ %.1, %_ZN11XMarkStripe13publish_stackEP6XStackI15XMarkStackEntryLm254EEb.exit ]
  %45 = add nuw i64 %.01517, 1
  %46 = icmp ult i64 %45, %44
  br i1 %46, label %7, label %._crit_edge, !llvm.loop !14

._crit_edge:                                      ; preds = %43, %3
  %.0.lcssa = phi i1 [ false, %3 ], [ %.2, %43 ]
  ret i1 %.0.lcssa
}